; ModuleID = '9/691.c'
source_filename = "9/691.c"
target datalayout = "e-m:e-p270:32:32-p271:32:32-p272:64:64-i64:64-f80:128-n8:16:32:64-S128"
target triple = "x86_64-pc-linux-gnu"

%struct.patient = type { [16 x i8], i32 }

@.str = private unnamed_addr constant [3 x i8] c"%d\00", align 1
@.str.1 = private unnamed_addr constant [6 x i8] c"%s %d\00", align 1

; Function Attrs: noinline nounwind uwtable
define dso_local void @main() #0 {
  %1 = alloca i32, align 4
  %2 = alloca i8*, align 8
  %3 = alloca i64, align 8
  %4 = alloca i32, align 4
  %5 = alloca i32, align 4
  %6 = alloca i64, align 8
  %7 = alloca i32, align 4
  %8 = alloca i32, align 4
  %9 = alloca [16 x i8], align 16
  %10 = call i32 (i8*, ...) @__isoc99_scanf(i8* getelementptr inbounds ([3 x i8], [3 x i8]* @.str, i64 0, i64 0), i32* %1)
  %11 = load i32, i32* %1, align 4
  %12 = zext i32 %11 to i64
  %13 = call i8* @llvm.stacksave()
  store i8* %13, i8** %2, align 8
  %14 = alloca %struct.patient, i64 %12, align 16
  store i64 %12, i64* %3, align 8
  store i32 0, i32* %4, align 4
  br label %15

15:                                               ; preds = %30, %0
  %16 = load i32, i32* %4, align 4
  %17 = load i32, i32* %1, align 4
  %18 = icmp slt i32 %16, %17
  br i1 %18, label %19, label %33

19:                                               ; preds = %15
  %20 = load i32, i32* %4, align 4
  %21 = sext i32 %20 to i64
  %22 = getelementptr inbounds %struct.patient, %struct.patient* %14, i64 %21
  %23 = getelementptr inbounds %struct.patient, %struct.patient* %22, i32 0, i32 0
  %24 = getelementptr inbounds [16 x i8], [16 x i8]* %23, i64 0, i64 0
  %25 = load i32, i32* %4, align 4
  %26 = sext i32 %25 to i64
  %27 = getelementptr inbounds %struct.patient, %struct.patient* %14, i64 %26
  %28 = getelementptr inbounds %struct.patient, %struct.patient* %27, i32 0, i32 1
  %29 = call i32 (i8*, ...) @__isoc99_scanf(i8* getelementptr inbounds ([6 x i8], [6 x i8]* @.str.1, i64 0, i64 0), i8* %24, i32* %28)
  br label %30

30:                                               ; preds = %19
  %31 = load i32, i32* %4, align 4
  %32 = add nsw i32 %31, 1
  store i32 %32, i32* %4, align 4
  br label %15

33:                                               ; preds = %15
  %34 = load i32, i32* %1, align 4
  %35 = zext i32 %34 to i64
  %36 = alloca %struct.patient, i64 %35, align 16
  store i64 %35, i64* %6, align 8
  store i32 0, i32* %4, align 4
  store i32 0, i32* %5, align 4
  br label %37

37:                                               ; preds = %72, %33
  %38 = load i32, i32* %4, align 4
  %39 = load i32, i32* %1, align 4
  %40 = icmp slt i32 %38, %39
  br i1 %40, label %41, label %75

41:                                               ; preds = %37
  %42 = load i32, i32* %4, align 4
  %43 = sext i32 %42 to i64
  %44 = getelementptr inbounds %struct.patient, %struct.patient* %14, i64 %43
  %45 = getelementptr inbounds %struct.patient, %struct.patient* %44, i32 0, i32 1
  %46 = load i32, i32* %45, align 4
  %47 = icmp sge i32 %46, 60
  br i1 %47, label %48, label %71

48:                                               ; preds = %41
  %49 = load i32, i32* %5, align 4
  %50 = sext i32 %49 to i64
  %51 = getelementptr inbounds %struct.patient, %struct.patient* %36, i64 %50
  %52 = getelementptr inbounds %struct.patient, %struct.patient* %51, i32 0, i32 0
  %53 = getelementptr inbounds [16 x i8], [16 x i8]* %52, i64 0, i64 0
  %54 = load i32, i32* %4, align 4
  %55 = sext i32 %54 to i64
  %56 = getelementptr inbounds %struct.patient, %struct.patient* %14, i64 %55
  %57 = getelementptr inbounds %struct.patient, %struct.patient* %56, i32 0, i32 0
  %58 = getelementptr inbounds [16 x i8], [16 x i8]* %57, i64 0, i64 0
  %59 = call i8* @strcpy(i8* %53, i8* %58) #2
  %60 = load i32, i32* %4, align 4
  %61 = sext i32 %60 to i64
  %62 = getelementptr inbounds %struct.patient, %struct.patient* %14, i64 %61
  %63 = getelementptr inbounds %struct.patient, %struct.patient* %62, i32 0, i32 1
  %64 = load i32, i32* %63, align 4
  %65 = load i32, i32* %5, align 4
  %66 = sext i32 %65 to i64
  %67 = getelementptr inbounds %struct.patient, %struct.patient* %36, i64 %66
  %68 = getelementptr inbounds %struct.patient, %struct.patient* %67, i32 0, i32 1
  store i32 %64, i32* %68, align 4
  %69 = load i32, i32* %5, align 4
  %70 = add nsw i32 %69, 1
  store i32 %70, i32* %5, align 4
  br label %71

71:                                               ; preds = %48, %41
  br label %72

72:                                               ; preds = %71
  %73 = load i32, i32* %4, align 4
  %74 = add nsw i32 %73, 1
  store i32 %74, i32* %4, align 4
  br label %37

75:                                               ; preds = %37
  store i32 0, i32* %7, align 4
  br label %76

76:                                               ; preds = %155, %75
  %77 = load i32, i32* %7, align 4
  %78 = load i32, i32* %5, align 4
  %79 = icmp slt i32 %77, %78
  br i1 %79, label %80, label %158

80:                                               ; preds = %76
  store i32 0, i32* %4, align 4
  br label %81

81:                                               ; preds = %151, %80
  %82 = load i32, i32* %4, align 4
  %83 = load i32, i32* %5, align 4
  %84 = load i32, i32* %7, align 4
  %85 = sub nsw i32 %83, %84
  %86 = sub nsw i32 %85, 1
  %87 = icmp slt i32 %82, %86
  br i1 %87, label %88, label %154

88:                                               ; preds = %81
  %89 = load i32, i32* %4, align 4
  %90 = sext i32 %89 to i64
  %91 = getelementptr inbounds %struct.patient, %struct.patient* %36, i64 %90
  %92 = getelementptr inbounds %struct.patient, %struct.patient* %91, i32 0, i32 1
  %93 = load i32, i32* %92, align 4
  %94 = load i32, i32* %4, align 4
  %95 = add nsw i32 %94, 1
  %96 = sext i32 %95 to i64
  %97 = getelementptr inbounds %struct.patient, %struct.patient* %36, i64 %96
  %98 = getelementptr inbounds %struct.patient, %struct.patient* %97, i32 0, i32 1
  %99 = load i32, i32* %98, align 4
  %100 = icmp slt i32 %93, %99
  br i1 %100, label %101, label %150

101:                                              ; preds = %88
  %102 = getelementptr inbounds [16 x i8], [16 x i8]* %9, i64 0, i64 0
  %103 = load i32, i32* %4, align 4
  %104 = sext i32 %103 to i64
  %105 = getelementptr inbounds %struct.patient, %struct.patient* %36, i64 %104
  %106 = getelementptr inbounds %struct.patient, %struct.patient* %105, i32 0, i32 0
  %107 = getelementptr inbounds [16 x i8], [16 x i8]* %106, i64 0, i64 0
  %108 = call i8* @strcpy(i8* %102, i8* %107) #2
  %109 = load i32, i32* %4, align 4
  %110 = sext i32 %109 to i64
  %111 = getelementptr inbounds %struct.patient, %struct.patient* %36, i64 %110
  %112 = getelementptr inbounds %struct.patient, %struct.patient* %111, i32 0, i32 0
  %113 = getelementptr inbounds [16 x i8], [16 x i8]* %112, i64 0, i64 0
  %114 = load i32, i32* %4, align 4
  %115 = add nsw i32 %114, 1
  %116 = sext i32 %115 to i64
  %117 = getelementptr inbounds %struct.patient, %struct.patient* %36, i64 %116
  %118 = getelementptr inbounds %struct.patient, %struct.patient* %117, i32 0, i32 0
  %119 = getelementptr inbounds [16 x i8], [16 x i8]* %118, i64 0, i64 0
  %120 = call i8* @strcpy(i8* %113, i8* %119) #2
  %121 = load i32, i32* %4, align 4
  %122 = add nsw i32 %121, 1
  %123 = sext i32 %122 to i64
  %124 = getelementptr inbounds %struct.patient, %struct.patient* %36, i64 %123
  %125 = getelementptr inbounds %struct.patient, %struct.patient* %124, i32 0, i32 0
  %126 = getelementptr inbounds [16 x i8], [16 x i8]* %125, i64 0, i64 0
  %127 = getelementptr inbounds [16 x i8], [16 x i8]* %9, i64 0, i64 0
  %128 = call i8* @strcpy(i8* %126, i8* %127) #2
  %129 = load i32, i32* %4, align 4
  %130 = sext i32 %129 to i64
  %131 = getelementptr inbounds %struct.patient, %struct.patient* %36, i64 %130
  %132 = getelementptr inbounds %struct.patient, %struct.patient* %131, i32 0, i32 1
  %133 = load i32, i32* %132, align 4
  store i32 %133, i32* %8, align 4
  %134 = load i32, i32* %4, align 4
  %135 = add nsw i32 %134, 1
  %136 = sext i32 %135 to i64
  %137 = getelementptr inbounds %struct.patient, %struct.patient* %36, i64 %136
  %138 = getelementptr inbounds %struct.patient, %struct.patient* %137, i32 0, i32 1
  %139 = load i32, i32* %138, align 4
  %140 = load i32, i32* %4, align 4
  %141 = sext i32 %140 to i64
  %142 = getelementptr inbounds %struct.patient, %struct.patient* %36, i64 %141
  %143 = getelementptr inbounds %struct.patient, %struct.patient* %142, i32 0, i32 1
  store i32 %139, i32* %143, align 4
  %144 = load i32, i32* %8, align 4
  %145 = load i32, i32* %4, align 4
  %146 = add nsw i32 %145, 1
  %147 = sext i32 %146 to i64
  %148 = getelementptr inbounds %struct.patient, %struct.patient* %36, i64 %147
  %149 = getelementptr inbounds %struct.patient, %struct.patient* %148, i32 0, i32 1
  store i32 %144, i32* %149, align 4
  br label %150

150:                                              ; preds = %101, %88
  br label %151

151:                                              ; preds = %150
  %152 = load i32, i32* %4, align 4
  %153 = add nsw i32 %152, 1
  store i32 %153, i32* %4, align 4
  br label %81

154:                                              ; preds = %81
  br label %155

155:                                              ; preds = %154
  %156 = load i32, i32* %7, align 4
  %157 = add nsw i32 %156, 1
  store i32 %157, i32* %7, align 4
  br label %76

158:                                              ; preds = %76
  store i32 0, i32* %4, align 4
  br label %159

159:                                              ; preds = %194, %158
  %160 = load i32, i32* %4, align 4
  %161 = load i32, i32* %1, align 4
  %162 = icmp slt i32 %160, %161
  br i1 %162, label %163, label %197

163:                                              ; preds = %159
  %164 = load i32, i32* %4, align 4
  %165 = sext i32 %164 to i64
  %166 = getelementptr inbounds %struct.patient, %struct.patient* %14, i64 %165
  %167 = getelementptr inbounds %struct.patient, %struct.patient* %166, i32 0, i32 1
  %168 = load i32, i32* %167, align 4
  %169 = icmp slt i32 %168, 60
  br i1 %169, label %170, label %193

170:                                              ; preds = %163
  %171 = load i32, i32* %5, align 4
  %172 = sext i32 %171 to i64
  %173 = getelementptr inbounds %struct.patient, %struct.patient* %36, i64 %172
  %174 = getelementptr inbounds %struct.patient, %struct.patient* %173, i32 0, i32 0
  %175 = getelementptr inbounds [16 x i8], [16 x i8]* %174, i64 0, i64 0
  %176 = load i32, i32* %4, align 4
  %177 = sext i32 %176 to i64
  %178 = getelementptr inbounds %struct.patient, %struct.patient* %14, i64 %177
  %179 = getelementptr inbounds %struct.patient, %struct.patient* %178, i32 0, i32 0
  %180 = getelementptr inbounds [16 x i8], [16 x i8]* %179, i64 0, i64 0
  %181 = call i8* @strcpy(i8* %175, i8* %180) #2
  %182 = load i32, i32* %4, align 4
  %183 = sext i32 %182 to i64
  %184 = getelementptr inbounds %struct.patient, %struct.patient* %14, i64 %183
  %185 = getelementptr inbounds %struct.patient, %struct.patient* %184, i32 0, i32 1
  %186 = load i32, i32* %185, align 4
  %187 = load i32, i32* %5, align 4
  %188 = sext i32 %187 to i64
  %189 = getelementptr inbounds %struct.patient, %struct.patient* %36, i64 %188
  %190 = getelementptr inbounds %struct.patient, %struct.patient* %189, i32 0, i32 1
  store i32 %186, i32* %190, align 4
  %191 = load i32, i32* %5, align 4
  %192 = add nsw i32 %191, 1
  store i32 %192, i32* %5, align 4
  br label %193

193:                                              ; preds = %170, %163
  br label %194

194:                                              ; preds = %193
  %195 = load i32, i32* %4, align 4
  %196 = add nsw i32 %195, 1
  store i32 %196, i32* %4, align 4
  br label %159

197:                                              ; preds = %159
  store i32 0, i32* %4, align 4
  br label %198

198:                                              ; preds = %209, %197
  %199 = load i32, i32* %4, align 4
  %200 = load i32, i32* %1, align 4
  %201 = icmp slt i32 %199, %200
  br i1 %201, label %202, label %212

202:                                              ; preds = %198
  %203 = load i32, i32* %4, align 4
  %204 = sext i32 %203 to i64
  %205 = getelementptr inbounds %struct.patient, %struct.patient* %36, i64 %204
  %206 = getelementptr inbounds %struct.patient, %struct.patient* %205, i32 0, i32 0
  %207 = getelementptr inbounds [16 x i8], [16 x i8]* %206, i64 0, i64 0
  %208 = call i32 @puts(i8* %207)
  br label %209

209:                                              ; preds = %202
  %210 = load i32, i32* %4, align 4
  %211 = add nsw i32 %210, 1
  store i32 %211, i32* %4, align 4
  br label %198

212:                                              ; preds = %198
  %213 = call i32 @putchar(i32 10)
  %214 = load i8*, i8** %2, align 8
  call void @llvm.stackrestore(i8* %214)
  ret void
}

declare dso_local i32 @__isoc99_scanf(i8*, ...) #1

; Function Attrs: nounwind
declare i8* @llvm.stacksave() #2

; Function Attrs: nounwind
declare dso_local i8* @strcpy(i8*, i8*) #3

declare dso_local i32 @puts(i8*) #1

declare dso_local i32 @putchar(i32) #1

; Function Attrs: nounwind
declare void @llvm.stackrestore(i8*) #2


!llvm.module.flags = !{!0}
!llvm.ident = !{!1}

!0 = !{i32 1, !"wchar_size", i32 4}
!1 = !{!"clang version 10.0.0-4ubuntu1 "}
